target datalayout = "e-m:e-p270:32:32-p271:32:32-p272:64:64-i64:64-i128:128-f80:128-n8:16:32:64-S128"
target triple = "x86_64-pc-linux-gnu"

%"class.cv::Point_" = type { i32, i32 }
%"class.cv::Scalar_" = type { %"class.cv::Vec" }
%"class.cv::Vec" = type { %"class.cv::Matx" }
%"class.cv::Matx" = type { [4 x double] }
%"class.cv::utils::trace::details::Region" = type <{ ptr, i32, [4 x i8] }>
%"class.cv::Mat" = type { i32, i32, i32, i32, ptr, ptr, ptr, ptr, ptr, ptr, %"struct.cv::MatSize", %"struct.cv::MatStep" }
%"struct.cv::MatSize" = type { ptr }
%"struct.cv::MatStep" = type { ptr, [2 x i64] }
%"class.cv::Size_" = type { i32, i32 }
%"class.cv::_InputArray" = type { i32, ptr, %"class.cv::Size_" }
%"class.cv::_OutputArray" = type { %"class.cv::_InputArray" }
%"class.cv::_InputOutputArray" = type { %"class.cv::_OutputArray" }

; Function Attrs: inlinehint mustprogress nounwind uwtable
define linkonce_odr hidden void @_ZN2cv5Size_IiEC2Ev(ptr noundef nonnull align 4 dereferenceable(8) %0) unnamed_addr #1 comdat align 2 {
  %2 = alloca ptr, align 8
  store ptr %0, ptr %2, align 8, !tbaa !325
  %3 = load ptr, ptr %2, align 8
  %4 = getelementptr inbounds nuw %"class.cv::Size_", ptr %3, i32 0, i32 0
  store i32 0, ptr %4, align 4, !tbaa !47
  %5 = getelementptr inbounds nuw %"class.cv::Size_", ptr %3, i32 0, i32 1
  store i32 0, ptr %5, align 4, !tbaa !45
  ret void
}

; Function Attrs: inlinehint mustprogress nounwind uwtable
define linkonce_odr hidden void @_ZN2cv4MatxIdLi4ELi1EEC2EPKd(ptr noundef nonnull align 8 dereferenceable(32) %0, ptr noundef %1) unnamed_addr #1 comdat align 2 {
  %3 = alloca ptr, align 8
  %4 = alloca ptr, align 8
  %5 = alloca i32, align 4
  store ptr %0, ptr %3, align 8, !tbaa !335
  store ptr %1, ptr %4, align 8, !tbaa !90
  %6 = load ptr, ptr %3, align 8
  call void @llvm.lifetime.start.p0(i64 4, ptr %5) #17
  store i32 0, ptr %5, align 4, !tbaa !9
  br label %7

7:                                                ; preds = %21, %2
  %8 = load i32, ptr %5, align 4, !tbaa !9
  %9 = icmp slt i32 %8, 4
  br i1 %9, label %11, label %10

10:                                               ; preds = %7
  call void @llvm.lifetime.end.p0(i64 4, ptr %5) #17
  br label %24

11:                                               ; preds = %7
  %12 = load ptr, ptr %4, align 8, !tbaa !90
  %13 = load i32, ptr %5, align 4, !tbaa !9
  %14 = sext i32 %13 to i64
  %15 = getelementptr inbounds double, ptr %12, i64 %14
  %16 = load double, ptr %15, align 8, !tbaa !41
  %17 = getelementptr inbounds nuw %"class.cv::Matx", ptr %6, i32 0, i32 0
  %18 = load i32, ptr %5, align 4, !tbaa !9
  %19 = sext i32 %18 to i64
  %20 = getelementptr inbounds [4 x double], ptr %17, i64 0, i64 %19
  store double %16, ptr %20, align 8, !tbaa !41
  br label %21

21:                                               ; preds = %11
  %22 = load i32, ptr %5, align 4, !tbaa !9
  %23 = add nsw i32 %22, 1
  store i32 %23, ptr %5, align 4, !tbaa !9
  br label %7, !llvm.loop !337

24:                                               ; preds = %10
  ret void
}

; Function Attrs: inlinehint mustprogress uwtable
define linkonce_odr hidden void @_ZN2cv11_InputArrayC2Ev(ptr noundef nonnull align 8 dereferenceable(24) %0) unnamed_addr #2 comdat align 2 {
  %2 = alloca ptr, align 8
  store ptr %0, ptr %2, align 8, !tbaa !76
  %3 = load ptr, ptr %2, align 8
  %4 = getelementptr inbounds nuw %"class.cv::_InputArray", ptr %3, i32 0, i32 2
  call void @_ZN2cv5Size_IiEC2Ev(ptr noundef nonnull align 4 dereferenceable(8) %4)
  call void @_ZN2cv11_InputArray4initEiPKv(ptr noundef nonnull align 8 dereferenceable(24) %3, i32 noundef 0, ptr noundef null)
  ret void
}

; Function Attrs: inlinehint mustprogress uwtable
define linkonce_odr hidden void @_ZN2cv3VecIdLi4EEC2ERKS1_(ptr noundef nonnull align 8 dereferenceable(32) %0, ptr noundef nonnull align 8 dereferenceable(32) %1) unnamed_addr #2 comdat align 2 {
  %3 = alloca ptr, align 8
  %4 = alloca ptr, align 8
  store ptr %0, ptr %3, align 8, !tbaa !94
  store ptr %1, ptr %4, align 8, !tbaa !94
  %5 = load ptr, ptr %3, align 8
  %6 = load ptr, ptr %4, align 8, !tbaa !94
  %7 = getelementptr inbounds nuw %"class.cv::Matx", ptr %6, i32 0, i32 0
  %8 = getelementptr inbounds [4 x double], ptr %7, i64 0, i64 0
  call void @_ZN2cv4MatxIdLi4ELi1EEC2EPKd(ptr noundef nonnull align 8 dereferenceable(32) %5, ptr noundef %8)
  ret void
}

; Function Attrs: inlinehint mustprogress nounwind uwtable
define linkonce_odr hidden void @_ZN2cv11_InputArray4initEiPKv(ptr noundef nonnull align 8 dereferenceable(24) %0, i32 noundef %1, ptr noundef %2) #1 comdat align 2 {
  %4 = alloca ptr, align 8
  %5 = alloca i32, align 4
  %6 = alloca ptr, align 8
  store ptr %0, ptr %4, align 8, !tbaa !76
  store i32 %1, ptr %5, align 4, !tbaa !9
  store ptr %2, ptr %6, align 8, !tbaa !75
  %7 = load ptr, ptr %4, align 8
  %8 = load i32, ptr %5, align 4, !tbaa !9
  %9 = getelementptr inbounds nuw %"class.cv::_InputArray", ptr %7, i32 0, i32 0
  store i32 %8, ptr %9, align 8, !tbaa !327
  %10 = load ptr, ptr %6, align 8, !tbaa !75
  %11 = getelementptr inbounds nuw %"class.cv::_InputArray", ptr %7, i32 0, i32 1
  store ptr %10, ptr %11, align 8, !tbaa !78
  ret void
}

; Function Attrs: inlinehint mustprogress uwtable
define linkonce_odr hidden void @_ZN2cv12_OutputArrayC2Ev(ptr noundef nonnull align 8 dereferenceable(24) %0) unnamed_addr #2 comdat align 2 {
  %2 = alloca ptr, align 8
  store ptr %0, ptr %2, align 8, !tbaa !92
  %3 = load ptr, ptr %2, align 8
  call void @_ZN2cv11_InputArrayC2Ev(ptr noundef nonnull align 8 dereferenceable(24) %3)
  call void @_ZN2cv11_InputArray4initEiPKv(ptr noundef nonnull align 8 dereferenceable(24) %3, i32 noundef 33554432, ptr noundef null)
  ret void
}

; Function Attrs: inlinehint mustprogress nounwind uwtable
define linkonce_odr hidden void @_ZN2cv11_InputArrayD2Ev(ptr noundef nonnull align 8 dereferenceable(24) %0) unnamed_addr #1 comdat align 2 {
  %2 = alloca ptr, align 8
  store ptr %0, ptr %2, align 8, !tbaa !76
  ret void
}

; Function Attrs: inlinehint mustprogress uwtable
define linkonce_odr hidden void @_ZN2cv7Scalar_IdEC2ERKS1_(ptr noundef nonnull align 8 dereferenceable(32) %0, ptr noundef nonnull align 8 dereferenceable(32) %1) unnamed_addr #2 comdat align 2 {
  %3 = alloca ptr, align 8
  %4 = alloca ptr, align 8
  store ptr %0, ptr %3, align 8, !tbaa !39
  store ptr %1, ptr %4, align 8, !tbaa !39
  %5 = load ptr, ptr %3, align 8
  %6 = load ptr, ptr %4, align 8, !tbaa !39
  call void @_ZN2cv3VecIdLi4EEC2ERKS1_(ptr noundef nonnull align 8 dereferenceable(32) %5, ptr noundef nonnull align 8 dereferenceable(32) %6)
  ret void
}

; Function Attrs: inlinehint mustprogress uwtable
define linkonce_odr hidden void @_ZN2cv17_InputOutputArrayC2ERNS_3MatE(ptr noundef nonnull align 8 dereferenceable(24) %0, ptr noundef nonnull align 8 dereferenceable(96) %1) unnamed_addr #2 comdat align 2 {
  %3 = alloca ptr, align 8
  %4 = alloca ptr, align 8
  store ptr %0, ptr %3, align 8, !tbaa !42
  store ptr %1, ptr %4, align 8, !tbaa !83
  %5 = load ptr, ptr %3, align 8
  call void @_ZN2cv12_OutputArrayC2Ev(ptr noundef nonnull align 8 dereferenceable(24) %5)
  %6 = load ptr, ptr %4, align 8, !tbaa !83
  call void @_ZN2cv11_InputArray4initEiPKv(ptr noundef nonnull align 8 dereferenceable(24) %5, i32 noundef 50397184, ptr noundef %6)
  ret void
}

; Function Attrs: mustprogress uwtable
define noundef i32 @_ZN2cv9floodFillERKNS_17_InputOutputArrayENS_6Point_IiEENS_7Scalar_IdEEPNS_5Rect_IiEES6_S6_i(ptr noundef nonnull align 8 dereferenceable(24) %0, i64 %1, ptr noundef %2, ptr noundef %3, ptr noundef %4, ptr noundef %5, i32 noundef %6) #0 personality ptr @__gxx_personality_v0 {
  %8 = alloca %"class.cv::Point_", align 4
  %9 = alloca ptr, align 8
  %10 = alloca ptr, align 8
  %11 = alloca ptr, align 8
  %12 = alloca ptr, align 8
  %13 = alloca ptr, align 8
  %14 = alloca i32, align 4
  %15 = alloca %"class.cv::utils::trace::details::Region", align 8
  %16 = alloca %"class.cv::Mat", align 8
  %17 = alloca %"class.cv::_InputOutputArray", align 8
  %18 = alloca ptr, align 8
  %19 = alloca i32, align 4
  %20 = alloca %"class.cv::Point_", align 4
  %21 = alloca %"class.cv::Scalar_", align 8
  %22 = alloca %"class.cv::Scalar_", align 8
  %23 = alloca %"class.cv::Scalar_", align 8
  store i64 %1, ptr %8, align 4
  store ptr %0, ptr %9, align 8, !tbaa !42
  store ptr %2, ptr %10, align 8, !tbaa !39
  store ptr %3, ptr %11, align 8, !tbaa !29
  store ptr %4, ptr %12, align 8, !tbaa !39
  store ptr %5, ptr %13, align 8, !tbaa !39
  store i32 %6, ptr %14, align 4, !tbaa !9
  call void @llvm.lifetime.start.p0(i64 16, ptr %15) #17
  call void @_ZN2cv5utils5trace7details6RegionC1ERKNS3_21LocationStaticStorageE(ptr noundef nonnull align 8 dereferenceable(12) %15, ptr noundef nonnull align 8 dereferenceable(32) @_ZZN2cv9floodFillERKNS_17_InputOutputArrayENS_6Point_IiEENS_7Scalar_IdEEPNS_5Rect_IiEES6_S6_iE25__cv_trace_location_fn633)
  call void @llvm.lifetime.start.p0(i64 96, ptr %16) #17
  call void @_ZN2cv3MatC1Ev(ptr noundef nonnull align 8 dereferenceable(96) %16) #17
  %24 = load ptr, ptr %9, align 8, !tbaa !42
  call void @llvm.lifetime.start.p0(i64 24, ptr %17) #17
  invoke void @_ZN2cv17_InputOutputArrayC2ERNS_3MatE(ptr noundef nonnull align 8 dereferenceable(24) %17, ptr noundef nonnull align 8 dereferenceable(96) %16)
          to label %25 unwind label %34

25:                                               ; preds = %7
  call void @llvm.memcpy.p0.p0.i64(ptr align 4 %20, ptr align 4 %8, i64 8, i1 false), !tbaa.struct !11
  invoke void @_ZN2cv7Scalar_IdEC2ERKS1_(ptr noundef nonnull align 8 dereferenceable(32) %21, ptr noundef nonnull align 8 dereferenceable(32) %2)
          to label %26 unwind label %38

26:                                               ; preds = %25
  %27 = load ptr, ptr %11, align 8, !tbaa !29
  invoke void @_ZN2cv7Scalar_IdEC2ERKS1_(ptr noundef nonnull align 8 dereferenceable(32) %22, ptr noundef nonnull align 8 dereferenceable(32) %4)
          to label %28 unwind label %38

28:                                               ; preds = %26
  invoke void @_ZN2cv7Scalar_IdEC2ERKS1_(ptr noundef nonnull align 8 dereferenceable(32) %23, ptr noundef nonnull align 8 dereferenceable(32) %5)
          to label %29 unwind label %38

29:                                               ; preds = %28
  %30 = load i32, ptr %14, align 4, !tbaa !9
  %31 = load i64, ptr %20, align 4
  %32 = invoke noundef i32 @_ZN2cv9floodFillERKNS_17_InputOutputArrayES2_NS_6Point_IiEENS_7Scalar_IdEEPNS_5Rect_IiEES6_S6_i(ptr noundef nonnull align 8 dereferenceable(24) %24, ptr noundef nonnull align 8 dereferenceable(24) %17, i64 %31, ptr noundef %21, ptr noundef %27, ptr noundef %22, ptr noundef %23, i32 noundef %30)
          to label %33 unwind label %38

33:                                               ; preds = %29
  call void @_ZN2cv11_InputArrayD2Ev(ptr noundef nonnull align 8 dereferenceable(24) %17) #17
  call void @llvm.lifetime.end.p0(i64 24, ptr %17) #17
  call void @_ZN2cv3MatD1Ev(ptr noundef nonnull align 8 dereferenceable(96) %16) #17
  call void @llvm.lifetime.end.p0(i64 96, ptr %16) #17
  call void @_ZN2cv5utils5trace7details6RegionD2Ev(ptr noundef nonnull align 8 dereferenceable(12) %15) #17
  call void @llvm.lifetime.end.p0(i64 16, ptr %15) #17
  ret i32 %32

34:                                               ; preds = %7
  %35 = landingpad { ptr, i32 }
          cleanup
  %36 = extractvalue { ptr, i32 } %35, 0
  store ptr %36, ptr %18, align 8
  %37 = extractvalue { ptr, i32 } %35, 1
  store i32 %37, ptr %19, align 4
  br label %42

38:                                               ; preds = %29, %28, %26, %25
  %39 = landingpad { ptr, i32 }
          cleanup
  %40 = extractvalue { ptr, i32 } %39, 0
  store ptr %40, ptr %18, align 8
  %41 = extractvalue { ptr, i32 } %39, 1
  store i32 %41, ptr %19, align 4
  call void @_ZN2cv11_InputArrayD2Ev(ptr noundef nonnull align 8 dereferenceable(24) %17) #17
  br label %42

42:                                               ; preds = %38, %34
  call void @llvm.lifetime.end.p0(i64 24, ptr %17) #17
  call void @_ZN2cv3MatD1Ev(ptr noundef nonnull align 8 dereferenceable(96) %16) #17
  call void @llvm.lifetime.end.p0(i64 96, ptr %16) #17
  call void @_ZN2cv5utils5trace7details6RegionD2Ev(ptr noundef nonnull align 8 dereferenceable(12) %15) #17
  call void @llvm.lifetime.end.p0(i64 16, ptr %15) #17
  br label %43

43:                                               ; preds = %42
  %44 = load ptr, ptr %18, align 8
  %45 = load i32, ptr %19, align 4
  %46 = insertvalue { ptr, i32 } poison, ptr %44, 0
  %47 = insertvalue { ptr, i32 } %46, i32 %45, 1
  resume { ptr, i32 } %47
}