; Function Attrs: mustprogress uwtable
define noundef i32 @_ZN2cv9floodFillERKNS_17_InputOutputArrayENS_6Point_IiEENS_7Scalar_IdEEPNS_5Rect_IiEES6_S6_i(ptr noundef nonnull align 8 dereferenceable(24) %0, i64 %1, ptr noundef readonly captures(none) %2, ptr noundef %3, ptr noundef readonly captures(none) %4, ptr noundef readonly captures(none) %5, i32 noundef %6) local_unnamed_addr #7 personality ptr @__gxx_personality_v0 {
_ZN2cv7Scalar_IdEC2ERKS1_.exit.preheader:
  %7 = alloca %"class.cv::utils::trace::details::Region", align 8
  %8 = alloca %"class.cv::Mat", align 8
  %9 = alloca %"class.cv::_InputOutputArray", align 8
  %10 = alloca %"class.cv::Scalar_", align 8
  %11 = alloca %"class.cv::Scalar_", align 8
  %12 = alloca %"class.cv::Scalar_", align 8
  call void @llvm.lifetime.start.p0(i64 16, ptr nonnull %7) #18
  call void @_ZN2cv5utils5trace7details6RegionC1ERKNS3_21LocationStaticStorageE(ptr noundef nonnull align 8 dereferenceable(12) %7, ptr noundef nonnull align 8 dereferenceable(32) @_ZZN2cv9floodFillERKNS_17_InputOutputArrayENS_6Point_IiEENS_7Scalar_IdEEPNS_5Rect_IiEES6_S6_iE25__cv_trace_location_fn633)
  call void @llvm.lifetime.start.p0(i64 96, ptr nonnull %8) #18
  call void @_ZN2cv3MatC1Ev(ptr noundef nonnull align 8 dereferenceable(96) %8) #18
  call void @llvm.lifetime.start.p0(i64 24, ptr nonnull %9) #18
  %13 = getelementptr inbounds nuw i8, ptr %9, i64 8
  %14 = getelementptr inbounds nuw i8, ptr %9, i64 16
  store i64 0, ptr %14, align 8
  store i32 50397184, ptr %9, align 8, !tbaa !32
  store ptr %8, ptr %13, align 8, !tbaa !6
  call void @llvm.memcpy.p0.p0.i64(ptr noundef nonnull align 8 dereferenceable(32) %10, ptr noundef nonnull align 8 dereferenceable(32) %2, i64 32, i1 false), !tbaa !30
  call void @llvm.memcpy.p0.p0.i64(ptr noundef nonnull align 8 dereferenceable(32) %11, ptr noundef nonnull align 8 dereferenceable(32) %4, i64 32, i1 false), !tbaa !30
  call void @llvm.memcpy.p0.p0.i64(ptr noundef nonnull align 8 dereferenceable(32) %12, ptr noundef nonnull align 8 dereferenceable(32) %5, i64 32, i1 false), !tbaa !30
  %15 = invoke noundef i32 @_ZN2cv9floodFillERKNS_17_InputOutputArrayES2_NS_6Point_IiEENS_7Scalar_IdEEPNS_5Rect_IiEES6_S6_i(ptr noundef nonnull align 8 dereferenceable(24) %0, ptr noundef nonnull align 8 dereferenceable(24) %9, i64 %1, ptr noundef nonnull %10, ptr noundef %3, ptr noundef nonnull %11, ptr noundef nonnull %12, i32 noundef %6)
          to label %16 unwind label %23

16:                                               ; preds = %_ZN2cv7Scalar_IdEC2ERKS1_.exit.preheader
  call void @llvm.lifetime.end.p0(i64 24, ptr nonnull %9) #18
  call void @_ZN2cv3MatD1Ev(ptr noundef nonnull align 8 dereferenceable(96) %8) #18
  call void @llvm.lifetime.end.p0(i64 96, ptr nonnull %8) #18
  %17 = getelementptr inbounds nuw i8, ptr %7, i64 8
  %18 = load i32, ptr %17, align 8, !tbaa !339
  %.not.i = icmp eq i32 %18, 0
  br i1 %.not.i, label %_ZN2cv5utils5trace7details6RegionD2Ev.exit, label %19

19:                                               ; preds = %16
  invoke void @_ZN2cv5utils5trace7details6Region7destroyEv(ptr noundef nonnull align 8 dereferenceable(12) %7)
          to label %_ZN2cv5utils5trace7details6RegionD2Ev.exit unwind label %20

20:                                               ; preds = %19
  %21 = landingpad { ptr, i32 }
          catch ptr null
  %22 = extractvalue { ptr, i32 } %21, 0
  call void @__clang_call_terminate(ptr %22) #22
  unreachable

_ZN2cv5utils5trace7details6RegionD2Ev.exit:       ; preds = %16, %19
  call void @llvm.lifetime.end.p0(i64 16, ptr nonnull %7) #18
  ret i32 %15

23:                                               ; preds = %_ZN2cv7Scalar_IdEC2ERKS1_.exit.preheader
  %24 = landingpad { ptr, i32 }
          cleanup
  call void @llvm.lifetime.end.p0(i64 24, ptr nonnull %9) #18
  call void @_ZN2cv3MatD1Ev(ptr noundef nonnull align 8 dereferenceable(96) %8) #18
  call void @llvm.lifetime.end.p0(i64 96, ptr nonnull %8) #18
  call void @_ZN2cv5utils5trace7details6RegionD2Ev(ptr noundef nonnull align 8 dereferenceable(12) %7) #18
  call void @llvm.lifetime.end.p0(i64 16, ptr nonnull %7) #18
  resume { ptr, i32 } %24
}